; Function Attrs: nofree nounwind uwtable
define internal noalias noundef ptr @zend_fopen_wrapper(ptr noundef %0, ptr noundef writeonly %1) #4 {
  %.not = icmp eq ptr %1, null
  br i1 %.not, label %11, label %3

3:                                                ; preds = %2
  %4 = getelementptr inbounds i8, ptr %0, i64 4
  %5 = load i32, ptr %4, align 4
  %6 = and i32 %5, 64
  %.not8 = icmp eq i32 %6, 0
  br i1 %.not8, label %7, label %10

7:                                                ; preds = %3
  %8 = load i32, ptr %0, align 4
  %9 = add i32 %8, 1
  store i32 %9, ptr %0, align 4
  br label %10

10:                                               ; preds = %7, %3
  store ptr %0, ptr %1, align 8
  br label %11

11:                                               ; preds = %10, %2
  %12 = getelementptr inbounds i8, ptr %0, i64 24
  %13 = tail call noalias ptr @fopen(ptr noundef nonnull %12, ptr noundef nonnull @.str.30)
  ret ptr %13
}